target datalayout = "e-m:e-p270:32:32-p271:32:32-p272:64:64-i64:64-i128:128-f80:128-n8:16:32:64-S128"
target triple = "x86_64-pc-linux-gnu"

%struct.UCaseProps = type { ptr, ptr, ptr, ptr, %struct.UTrie2, [4 x i8] }
%struct.UTrie2 = type { ptr, ptr, ptr, i32, i32, i16, i16, i32, i32, i32, i32, ptr, i32, i8, i8, i16, ptr }

; Function Attrs: mustprogress nounwind uwtable
define i32 @ucase_toupper_77(i32 noundef %0) #3 {
  %2 = alloca i32, align 4
  %3 = alloca i32, align 4
  %4 = alloca i16, align 2
  %5 = alloca ptr, align 8
  %6 = alloca i16, align 2
  %7 = alloca i32, align 4
  %8 = alloca i32, align 4
  store i32 %0, ptr %3, align 4, !tbaa !11
  call void @llvm.lifetime.start.p0(i64 2, ptr %4) #5
  %9 = load ptr, ptr getelementptr inbounds nuw (%struct.UCaseProps, ptr @_ZL21ucase_props_singleton, i32 0, i32 4), align 8, !tbaa !19
  %10 = load i32, ptr %3, align 4, !tbaa !11
  %11 = icmp ult i32 %10, 55296
  br i1 %11, label %12, label %25

12:                                               ; preds = %1
  %13 = load ptr, ptr getelementptr inbounds nuw (%struct.UCaseProps, ptr @_ZL21ucase_props_singleton, i32 0, i32 4), align 8, !tbaa !19
  %14 = load i32, ptr %3, align 4, !tbaa !11
  %15 = ashr i32 %14, 5
  %16 = add nsw i32 0, %15
  %17 = sext i32 %16 to i64
  %18 = getelementptr inbounds i16, ptr %13, i64 %17
  %19 = load i16, ptr %18, align 2, !tbaa !25
  %20 = zext i16 %19 to i32
  %21 = shl i32 %20, 2
  %22 = load i32, ptr %3, align 4, !tbaa !11
  %23 = and i32 %22, 31
  %24 = add nsw i32 %21, %23
  br label %80

25:                                               ; preds = %1
  %26 = load i32, ptr %3, align 4, !tbaa !11
  %27 = icmp ule i32 %26, 65535
  br i1 %27, label %28, label %44

28:                                               ; preds = %25
  %29 = load ptr, ptr getelementptr inbounds nuw (%struct.UCaseProps, ptr @_ZL21ucase_props_singleton, i32 0, i32 4), align 8, !tbaa !19
  %30 = load i32, ptr %3, align 4, !tbaa !11
  %31 = icmp sle i32 %30, 56319
  %32 = select i1 %31, i32 320, i32 0
  %33 = load i32, ptr %3, align 4, !tbaa !11
  %34 = ashr i32 %33, 5
  %35 = add nsw i32 %32, %34
  %36 = sext i32 %35 to i64
  %37 = getelementptr inbounds i16, ptr %29, i64 %36
  %38 = load i16, ptr %37, align 2, !tbaa !25
  %39 = zext i16 %38 to i32
  %40 = shl i32 %39, 2
  %41 = load i32, ptr %3, align 4, !tbaa !11
  %42 = and i32 %41, 31
  %43 = add nsw i32 %40, %42
  br label %78

44:                                               ; preds = %25
  %45 = load i32, ptr %3, align 4, !tbaa !11
  %46 = icmp ugt i32 %45, 1114111
  br i1 %46, label %47, label %48

47:                                               ; preds = %44
  br label %76

48:                                               ; preds = %44
  %49 = load i32, ptr %3, align 4, !tbaa !11
  %50 = icmp sge i32 %49, 919552
  br i1 %50, label %51, label %52

51:                                               ; preds = %48
  br label %74

52:                                               ; preds = %48
  %53 = load ptr, ptr getelementptr inbounds nuw (%struct.UCaseProps, ptr @_ZL21ucase_props_singleton, i32 0, i32 4), align 8, !tbaa !19
  %54 = load ptr, ptr getelementptr inbounds nuw (%struct.UCaseProps, ptr @_ZL21ucase_props_singleton, i32 0, i32 4), align 8, !tbaa !19
  %55 = load i32, ptr %3, align 4, !tbaa !11
  %56 = ashr i32 %55, 11
  %57 = add nsw i32 2080, %56
  %58 = sext i32 %57 to i64
  %59 = getelementptr inbounds i16, ptr %54, i64 %58
  %60 = load i16, ptr %59, align 2, !tbaa !25
  %61 = zext i16 %60 to i32
  %62 = load i32, ptr %3, align 4, !tbaa !11
  %63 = ashr i32 %62, 5
  %64 = and i32 %63, 63
  %65 = add nsw i32 %61, %64
  %66 = sext i32 %65 to i64
  %67 = getelementptr inbounds i16, ptr %53, i64 %66
  %68 = load i16, ptr %67, align 2, !tbaa !25
  %69 = zext i16 %68 to i32
  %70 = shl i32 %69, 2
  %71 = load i32, ptr %3, align 4, !tbaa !11
  %72 = and i32 %71, 31
  %73 = add nsw i32 %70, %72
  br label %74

74:                                               ; preds = %52, %51
  %75 = phi i32 [ 13368, %51 ], [ %73, %52 ]
  br label %76

76:                                               ; preds = %74, %47
  %77 = phi i32 [ 3596, %47 ], [ %75, %74 ]
  br label %78

78:                                               ; preds = %76, %28
  %79 = phi i32 [ %43, %28 ], [ %77, %76 ]
  br label %80

80:                                               ; preds = %78, %12
  %81 = phi i32 [ %24, %12 ], [ %79, %78 ]
  %82 = sext i32 %81 to i64
  %83 = getelementptr inbounds i16, ptr %9, i64 %82
  %84 = load i16, ptr %83, align 2, !tbaa !25
  store i16 %84, ptr %4, align 2, !tbaa !25
  %85 = load i16, ptr %4, align 2, !tbaa !25
  %86 = zext i16 %85 to i32
  %87 = and i32 %86, 8
  %88 = icmp ne i32 %87, 0
  br i1 %88, label %101, label %89

89:                                               ; preds = %80
  %90 = load i16, ptr %4, align 2, !tbaa !25
  %91 = zext i16 %90 to i32
  %92 = and i32 %91, 3
  %93 = icmp eq i32 %92, 1
  br i1 %93, label %94, label %100

94:                                               ; preds = %89
  %95 = load i16, ptr %4, align 2, !tbaa !25
  %96 = sext i16 %95 to i32
  %97 = ashr i32 %96, 7
  %98 = load i32, ptr %3, align 4, !tbaa !11
  %99 = add nsw i32 %98, %97
  store i32 %99, ptr %3, align 4, !tbaa !11
  br label %100

100:                                              ; preds = %94, %89
  br label %233

101:                                              ; preds = %80
  call void @llvm.lifetime.start.p0(i64 8, ptr %5) #5
  %102 = load ptr, ptr getelementptr inbounds nuw (%struct.UCaseProps, ptr @_ZL21ucase_props_singleton, i32 0, i32 2), align 8, !tbaa !26
  %103 = load i16, ptr %4, align 2, !tbaa !25
  %104 = zext i16 %103 to i32
  %105 = ashr i32 %104, 4
  %106 = sext i32 %105 to i64
  %107 = getelementptr inbounds i16, ptr %102, i64 %106
  store ptr %107, ptr %5, align 8, !tbaa !27
  call void @llvm.lifetime.start.p0(i64 2, ptr %6) #5
  %108 = load ptr, ptr %5, align 8, !tbaa !27
  %109 = getelementptr inbounds nuw i16, ptr %108, i32 1
  store ptr %109, ptr %5, align 8, !tbaa !27
  %110 = load i16, ptr %108, align 2, !tbaa !25
  store i16 %110, ptr %6, align 2, !tbaa !25
  %111 = load i16, ptr %6, align 2, !tbaa !25
  %112 = zext i16 %111 to i32
  %113 = and i32 %112, 16
  %114 = icmp ne i32 %113, 0
  br i1 %114, label %115, label %179

115:                                              ; preds = %101
  %116 = load i16, ptr %4, align 2, !tbaa !25
  %117 = zext i16 %116 to i32
  %118 = and i32 %117, 3
  %119 = icmp eq i32 %118, 1
  br i1 %119, label %120, label %179

120:                                              ; preds = %115
  call void @llvm.lifetime.start.p0(i64 4, ptr %7) #5
  br label %121

121:                                              ; preds = %120
  %122 = load i16, ptr %6, align 2, !tbaa !25
  %123 = zext i16 %122 to i32
  %124 = and i32 %123, 256
  %125 = icmp eq i32 %124, 0
  br i1 %125, label %126, label %140

126:                                              ; preds = %121
  %127 = load i16, ptr %6, align 2, !tbaa !25
  %128 = zext i16 %127 to i32
  %129 = and i32 %128, 15
  %130 = sext i32 %129 to i64
  %131 = getelementptr inbounds [256 x i8], ptr @_ZL11flagsOffset, i64 0, i64 %130
  %132 = load i8, ptr %131, align 1, !tbaa !28
  %133 = zext i8 %132 to i32
  %134 = load ptr, ptr %5, align 8, !tbaa !27
  %135 = sext i32 %133 to i64
  %136 = getelementptr inbounds i16, ptr %134, i64 %135
  store ptr %136, ptr %5, align 8, !tbaa !27
  %137 = load ptr, ptr %5, align 8, !tbaa !27
  %138 = load i16, ptr %137, align 2, !tbaa !25
  %139 = zext i16 %138 to i32
  store i32 %139, ptr %7, align 4, !tbaa !11
  br label %162

140:                                              ; preds = %121
  %141 = load i16, ptr %6, align 2, !tbaa !25
  %142 = zext i16 %141 to i32
  %143 = and i32 %142, 15
  %144 = sext i32 %143 to i64
  %145 = getelementptr inbounds [256 x i8], ptr @_ZL11flagsOffset, i64 0, i64 %144
  %146 = load i8, ptr %145, align 1, !tbaa !28
  %147 = zext i8 %146 to i32
  %148 = mul nsw i32 2, %147
  %149 = load ptr, ptr %5, align 8, !tbaa !27
  %150 = sext i32 %148 to i64
  %151 = getelementptr inbounds i16, ptr %149, i64 %150
  store ptr %151, ptr %5, align 8, !tbaa !27
  %152 = load ptr, ptr %5, align 8, !tbaa !27
  %153 = getelementptr inbounds nuw i16, ptr %152, i32 1
  store ptr %153, ptr %5, align 8, !tbaa !27
  %154 = load i16, ptr %152, align 2, !tbaa !25
  %155 = zext i16 %154 to i32
  store i32 %155, ptr %7, align 4, !tbaa !11
  %156 = load i32, ptr %7, align 4, !tbaa !11
  %157 = shl i32 %156, 16
  %158 = load ptr, ptr %5, align 8, !tbaa !27
  %159 = load i16, ptr %158, align 2, !tbaa !25
  %160 = zext i16 %159 to i32
  %161 = or i32 %157, %160
  store i32 %161, ptr %7, align 4, !tbaa !11
  br label %162

162:                                              ; preds = %140, %126
  br label %163

163:                                              ; preds = %162
  br label %164

164:                                              ; preds = %163
  %165 = load i16, ptr %6, align 2, !tbaa !25
  %166 = zext i16 %165 to i32
  %167 = and i32 %166, 1024
  %168 = icmp eq i32 %167, 0
  br i1 %168, label %169, label %173

169:                                              ; preds = %164
  %170 = load i32, ptr %3, align 4, !tbaa !11
  %171 = load i32, ptr %7, align 4, !tbaa !11
  %172 = add nsw i32 %170, %171
  br label %177

173:                                              ; preds = %164
  %174 = load i32, ptr %3, align 4, !tbaa !11
  %175 = load i32, ptr %7, align 4, !tbaa !11
  %176 = sub nsw i32 %174, %175
  br label %177

177:                                              ; preds = %173, %169
  %178 = phi i32 [ %172, %169 ], [ %176, %173 ]
  store i32 %178, ptr %2, align 4
  store i32 1, ptr %8, align 4
  call void @llvm.lifetime.end.p0(i64 4, ptr %7) #5
  br label %230

179:                                              ; preds = %115, %101
  %180 = load i16, ptr %6, align 2, !tbaa !25
  %181 = zext i16 %180 to i32
  %182 = and i32 %181, 4
  %183 = icmp ne i32 %182, 0
  br i1 %183, label %184, label %229

184:                                              ; preds = %179
  br label %185

185:                                              ; preds = %184
  %186 = load i16, ptr %6, align 2, !tbaa !25
  %187 = zext i16 %186 to i32
  %188 = and i32 %187, 256
  %189 = icmp eq i32 %188, 0
  br i1 %189, label %190, label %204

190:                                              ; preds = %185
  %191 = load i16, ptr %6, align 2, !tbaa !25
  %192 = zext i16 %191 to i32
  %193 = and i32 %192, 3
  %194 = sext i32 %193 to i64
  %195 = getelementptr inbounds [256 x i8], ptr @_ZL11flagsOffset, i64 0, i64 %194
  %196 = load i8, ptr %195, align 1, !tbaa !28
  %197 = zext i8 %196 to i32
  %198 = load ptr, ptr %5, align 8, !tbaa !27
  %199 = sext i32 %197 to i64
  %200 = getelementptr inbounds i16, ptr %198, i64 %199
  store ptr %200, ptr %5, align 8, !tbaa !27
  %201 = load ptr, ptr %5, align 8, !tbaa !27
  %202 = load i16, ptr %201, align 2, !tbaa !25
  %203 = zext i16 %202 to i32
  store i32 %203, ptr %3, align 4, !tbaa !11
  br label %226

204:                                              ; preds = %185
  %205 = load i16, ptr %6, align 2, !tbaa !25
  %206 = zext i16 %205 to i32
  %207 = and i32 %206, 3
  %208 = sext i32 %207 to i64
  %209 = getelementptr inbounds [256 x i8], ptr @_ZL11flagsOffset, i64 0, i64 %208
  %210 = load i8, ptr %209, align 1, !tbaa !28
  %211 = zext i8 %210 to i32
  %212 = mul nsw i32 2, %211
  %213 = load ptr, ptr %5, align 8, !tbaa !27
  %214 = sext i32 %212 to i64
  %215 = getelementptr inbounds i16, ptr %213, i64 %214
  store ptr %215, ptr %5, align 8, !tbaa !27
  %216 = load ptr, ptr %5, align 8, !tbaa !27
  %217 = getelementptr inbounds nuw i16, ptr %216, i32 1
  store ptr %217, ptr %5, align 8, !tbaa !27
  %218 = load i16, ptr %216, align 2, !tbaa !25
  %219 = zext i16 %218 to i32
  store i32 %219, ptr %3, align 4, !tbaa !11
  %220 = load i32, ptr %3, align 4, !tbaa !11
  %221 = shl i32 %220, 16
  %222 = load ptr, ptr %5, align 8, !tbaa !27
  %223 = load i16, ptr %222, align 2, !tbaa !25
  %224 = zext i16 %223 to i32
  %225 = or i32 %221, %224
  store i32 %225, ptr %3, align 4, !tbaa !11
  br label %226

226:                                              ; preds = %204, %190
  br label %227

227:                                              ; preds = %226
  br label %228

228:                                              ; preds = %227
  br label %229

229:                                              ; preds = %228, %179
  store i32 0, ptr %8, align 4
  br label %230

230:                                              ; preds = %229, %177
  call void @llvm.lifetime.end.p0(i64 2, ptr %6) #5
  call void @llvm.lifetime.end.p0(i64 8, ptr %5) #5
  %231 = load i32, ptr %8, align 4
  switch i32 %231, label %235 [
    i32 0, label %232
  ]

232:                                              ; preds = %230
  br label %233

233:                                              ; preds = %232, %100
  %234 = load i32, ptr %3, align 4, !tbaa !11
  store i32 %234, ptr %2, align 4
  store i32 1, ptr %8, align 4
  br label %235

235:                                              ; preds = %233, %230
  call void @llvm.lifetime.end.p0(i64 2, ptr %4) #5
  %236 = load i32, ptr %2, align 4
  ret i32 %236
}