; Function Attrs: mustprogress nofree norecurse nosync nounwind willreturn memory(none) uwtable
define i32 @ucase_toupper_77(i32 noundef %0) local_unnamed_addr #3 {
  %2 = icmp ult i32 %0, 55296
  br i1 %2, label %3, label %5

3:                                                ; preds = %1
  %4 = lshr i32 %0, 5
  br label %.sink.split

5:                                                ; preds = %1
  %6 = icmp ult i32 %0, 65536
  br i1 %6, label %7, label %12

7:                                                ; preds = %5
  %8 = icmp samesign ult i32 %0, 56320
  %9 = select i1 %8, i32 320, i32 0
  %10 = lshr i32 %0, 5
  %11 = add nuw nsw i32 %9, %10
  br label %.sink.split

12:                                               ; preds = %5
  %13 = icmp ugt i32 %0, 1114111
  br i1 %13, label %34, label %14

14:                                               ; preds = %12
  %15 = icmp samesign ugt i32 %0, 919551
  br i1 %15, label %34, label %16

16:                                               ; preds = %14
  %17 = lshr i32 %0, 11
  %18 = zext nneg i32 %17 to i64
  %19 = getelementptr inbounds nuw i16, ptr @_ZL21ucase_props_trieIndex, i64 %18
  %20 = getelementptr inbounds nuw i8, ptr %19, i64 4160
  %21 = load i16, ptr %20, align 2, !tbaa !14
  %22 = zext i16 %21 to i32
  %23 = lshr i32 %0, 5
  %24 = and i32 %23, 63
  %25 = add nuw nsw i32 %24, %22
  br label %.sink.split

.sink.split:                                      ; preds = %3, %16, %7
  %.sink63 = phi i32 [ %11, %7 ], [ %25, %16 ], [ %4, %3 ]
  %26 = zext nneg i32 %.sink63 to i64
  %27 = getelementptr inbounds nuw i16, ptr @_ZL21ucase_props_trieIndex, i64 %26
  %28 = load i16, ptr %27, align 2, !tbaa !14
  %29 = zext i16 %28 to i32
  %30 = shl nuw nsw i32 %29, 2
  %31 = and i32 %0, 31
  %32 = add nuw nsw i32 %30, %31
  %33 = zext nneg i32 %32 to i64
  br label %34

34:                                               ; preds = %.sink.split, %14, %12
  %35 = phi i64 [ 3596, %12 ], [ 13368, %14 ], [ %33, %.sink.split ]
  %36 = getelementptr inbounds nuw i16, ptr @_ZL21ucase_props_trieIndex, i64 %35
  %37 = load i16, ptr %36, align 2, !tbaa !14
  %38 = zext i16 %37 to i32
  %39 = and i32 %38, 8
  %.not = icmp eq i32 %39, 0
  br i1 %.not, label %40, label %47

40:                                               ; preds = %34
  %41 = and i32 %38, 3
  %42 = icmp eq i32 %41, 1
  br i1 %42, label %43, label %106

43:                                               ; preds = %40
  %44 = ashr i16 %37, 7
  %45 = sext i16 %44 to i32
  %46 = add nsw i32 %0, %45
  br label %106

47:                                               ; preds = %34
  %48 = lshr i32 %38, 4
  %49 = zext nneg i32 %48 to i64
  %50 = getelementptr inbounds nuw i16, ptr @_ZL22ucase_props_exceptions, i64 %49
  %51 = getelementptr inbounds nuw i8, ptr %50, i64 2
  %52 = load i16, ptr %50, align 2, !tbaa !14
  %53 = zext i16 %52 to i32
  %54 = and i32 %53, 16
  %.not52 = icmp ne i32 %54, 0
  %55 = and i32 %38, 3
  %56 = icmp eq i32 %55, 1
  %or.cond = and i1 %56, %.not52
  br i1 %or.cond, label %57, label %78

57:                                               ; preds = %47
  %58 = and i32 %53, 256
  %59 = icmp eq i32 %58, 0
  %60 = and i32 %53, 15
  %61 = zext nneg i32 %60 to i64
  %62 = getelementptr inbounds nuw [256 x i8], ptr @_ZL11flagsOffset, i64 0, i64 %61
  %63 = load i8, ptr %62, align 1, !tbaa !16
  %64 = zext i8 %63 to i64
  br i1 %59, label %65, label %69

65:                                               ; preds = %57
  %66 = getelementptr inbounds nuw i16, ptr %51, i64 %64
  %67 = load i16, ptr %66, align 2, !tbaa !14
  %68 = zext i16 %67 to i32
  br label %101

69:                                               ; preds = %57
  %.idx54 = shl nuw nsw i64 %64, 2
  %70 = getelementptr inbounds nuw i8, ptr %51, i64 %.idx54
  %71 = getelementptr inbounds nuw i8, ptr %70, i64 2
  %72 = load i16, ptr %70, align 2, !tbaa !14
  %73 = zext i16 %72 to i32
  %74 = shl nuw i32 %73, 16
  %75 = load i16, ptr %71, align 2, !tbaa !14
  %76 = zext i16 %75 to i32
  %77 = or disjoint i32 %74, %76
  br label %101

78:                                               ; preds = %47
  %79 = and i32 %53, 4
  %.not53 = icmp eq i32 %79, 0
  br i1 %.not53, label %106, label %80

80:                                               ; preds = %78
  %81 = and i32 %53, 256
  %82 = icmp eq i32 %81, 0
  %83 = and i32 %53, 3
  %84 = zext nneg i32 %83 to i64
  %85 = getelementptr inbounds nuw [256 x i8], ptr @_ZL11flagsOffset, i64 0, i64 %84
  %86 = load i8, ptr %85, align 1, !tbaa !16
  %87 = zext i8 %86 to i64
  br i1 %82, label %88, label %92

88:                                               ; preds = %80
  %89 = getelementptr inbounds nuw i16, ptr %51, i64 %87
  %90 = load i16, ptr %89, align 2, !tbaa !14
  %91 = zext i16 %90 to i32
  br label %106

92:                                               ; preds = %80
  %.idx = shl nuw nsw i64 %87, 2
  %93 = getelementptr inbounds nuw i8, ptr %51, i64 %.idx
  %94 = getelementptr inbounds nuw i8, ptr %93, i64 2
  %95 = load i16, ptr %93, align 2, !tbaa !14
  %96 = zext i16 %95 to i32
  %97 = shl nuw i32 %96, 16
  %98 = load i16, ptr %94, align 2, !tbaa !14
  %99 = zext i16 %98 to i32
  %100 = or disjoint i32 %97, %99
  br label %106

101:                                              ; preds = %65, %69
  %.046 = phi i32 [ %68, %65 ], [ %77, %69 ]
  %102 = and i32 %53, 1024
  %103 = icmp eq i32 %102, 0
  %104 = sub i32 0, %.046
  %.p = select i1 %103, i32 %.046, i32 %104
  %105 = add i32 %.p, %0
  br label %106

106:                                              ; preds = %101, %88, %92, %78, %43, %40
  %.1 = phi i32 [ %46, %43 ], [ %0, %40 ], [ %105, %101 ], [ %0, %78 ], [ %100, %92 ], [ %91, %88 ]
  ret i32 %.1
}